; ModuleID = '53/1592.c'
source_filename = "53/1592.c"
target datalayout = "e-m:e-p270:32:32-p271:32:32-p272:64:64-i64:64-f80:128-n8:16:32:64-S128"
target triple = "x86_64-pc-linux-gnu"

@.str = private unnamed_addr constant [3 x i8] c"%d\00", align 1
@.str.1 = private unnamed_addr constant [2 x i8] c",\00", align 1

; Function Attrs: noinline nounwind uwtable
define dso_local i32 @main() #0 {
  %1 = alloca i32, align 4
  %2 = alloca [300 x i32], align 16
  %3 = alloca i32, align 4
  %4 = alloca i32, align 4
  %5 = alloca i32, align 4
  %6 = alloca i32, align 4
  %7 = alloca i32, align 4
  %8 = alloca [300 x i32], align 16
  store i32 0, i32* %1, align 4
  %9 = call i32 (i8*, ...) @__isoc99_scanf(i8* getelementptr inbounds ([3 x i8], [3 x i8]* @.str, i64 0, i64 0), i32* %3)
  store i32 0, i32* %4, align 4
  br label %10

10:                                               ; preds = %19, %0
  %11 = load i32, i32* %4, align 4
  %12 = load i32, i32* %3, align 4
  %13 = icmp slt i32 %11, %12
  br i1 %13, label %14, label %22

14:                                               ; preds = %10
  %15 = load i32, i32* %4, align 4
  %16 = sext i32 %15 to i64
  %17 = getelementptr inbounds [300 x i32], [300 x i32]* %2, i64 0, i64 %16
  %18 = call i32 (i8*, ...) @__isoc99_scanf(i8* getelementptr inbounds ([3 x i8], [3 x i8]* @.str, i64 0, i64 0), i32* %17)
  br label %19

19:                                               ; preds = %14
  %20 = load i32, i32* %4, align 4
  %21 = add nsw i32 %20, 1
  store i32 %21, i32* %4, align 4
  br label %10

22:                                               ; preds = %10
  %23 = getelementptr inbounds [300 x i32], [300 x i32]* %2, i64 0, i64 0
  %24 = load i32, i32* %23, align 16
  %25 = getelementptr inbounds [300 x i32], [300 x i32]* %8, i64 0, i64 0
  store i32 %24, i32* %25, align 16
  store i32 1, i32* %7, align 4
  store i32 0, i32* %4, align 4
  br label %26

26:                                               ; preds = %66, %22
  %27 = load i32, i32* %4, align 4
  %28 = load i32, i32* %3, align 4
  %29 = icmp slt i32 %27, %28
  br i1 %29, label %30, label %69

30:                                               ; preds = %26
  store i32 0, i32* %6, align 4
  store i32 0, i32* %5, align 4
  br label %31

31:                                               ; preds = %49, %30
  %32 = load i32, i32* %5, align 4
  %33 = load i32, i32* %7, align 4
  %34 = icmp slt i32 %32, %33
  br i1 %34, label %35, label %52

35:                                               ; preds = %31
  %36 = load i32, i32* %4, align 4
  %37 = sext i32 %36 to i64
  %38 = getelementptr inbounds [300 x i32], [300 x i32]* %2, i64 0, i64 %37
  %39 = load i32, i32* %38, align 4
  %40 = load i32, i32* %5, align 4
  %41 = sext i32 %40 to i64
  %42 = getelementptr inbounds [300 x i32], [300 x i32]* %8, i64 0, i64 %41
  %43 = load i32, i32* %42, align 4
  %44 = icmp eq i32 %39, %43
  br i1 %44, label %45, label %48

45:                                               ; preds = %35
  %46 = load i32, i32* %6, align 4
  %47 = add nsw i32 %46, 1
  store i32 %47, i32* %6, align 4
  br label %48

48:                                               ; preds = %45, %35
  br label %49

49:                                               ; preds = %48
  %50 = load i32, i32* %5, align 4
  %51 = add nsw i32 %50, 1
  store i32 %51, i32* %5, align 4
  br label %31

52:                                               ; preds = %31
  %53 = load i32, i32* %6, align 4
  %54 = icmp eq i32 %53, 0
  br i1 %54, label %55, label %65

55:                                               ; preds = %52
  %56 = load i32, i32* %4, align 4
  %57 = sext i32 %56 to i64
  %58 = getelementptr inbounds [300 x i32], [300 x i32]* %2, i64 0, i64 %57
  %59 = load i32, i32* %58, align 4
  %60 = load i32, i32* %7, align 4
  %61 = sext i32 %60 to i64
  %62 = getelementptr inbounds [300 x i32], [300 x i32]* %8, i64 0, i64 %61
  store i32 %59, i32* %62, align 4
  %63 = load i32, i32* %7, align 4
  %64 = add nsw i32 %63, 1
  store i32 %64, i32* %7, align 4
  br label %65

65:                                               ; preds = %55, %52
  br label %66

66:                                               ; preds = %65
  %67 = load i32, i32* %4, align 4
  %68 = add nsw i32 %67, 1
  store i32 %68, i32* %4, align 4
  br label %26

69:                                               ; preds = %26
  store i32 0, i32* %4, align 4
  br label %70

70:                                               ; preds = %85, %69
  %71 = load i32, i32* %4, align 4
  %72 = load i32, i32* %7, align 4
  %73 = icmp slt i32 %71, %72
  br i1 %73, label %74, label %88

74:                                               ; preds = %70
  %75 = load i32, i32* %4, align 4
  %76 = icmp ne i32 %75, 0
  br i1 %76, label %77, label %79

77:                                               ; preds = %74
  %78 = call i32 (i8*, ...) @printf(i8* getelementptr inbounds ([2 x i8], [2 x i8]* @.str.1, i64 0, i64 0))
  br label %79

79:                                               ; preds = %77, %74
  %80 = load i32, i32* %4, align 4
  %81 = sext i32 %80 to i64
  %82 = getelementptr inbounds [300 x i32], [300 x i32]* %8, i64 0, i64 %81
  %83 = load i32, i32* %82, align 4
  %84 = call i32 (i8*, ...) @printf(i8* getelementptr inbounds ([3 x i8], [3 x i8]* @.str, i64 0, i64 0), i32 %83)
  br label %85

85:                                               ; preds = %79
  %86 = load i32, i32* %4, align 4
  %87 = add nsw i32 %86, 1
  store i32 %87, i32* %4, align 4
  br label %70

88:                                               ; preds = %70
  ret i32 0
}

declare dso_local i32 @__isoc99_scanf(i8*, ...) #1

declare dso_local i32 @printf(i8*, ...) #1


!llvm.module.flags = !{!0}
!llvm.ident = !{!1}

!0 = !{i32 1, !"wchar_size", i32 4}
!1 = !{!"clang version 10.0.0-4ubuntu1 "}
